; Function Attrs: mustprogress uwtable
define void @_ZN2cv4blurERKNS_11_InputArrayERKNS_12_OutputArrayENS_5Size_IiEENS_6Point_IiEEi(ptr noundef nonnull align 8 dereferenceable(24) %0, ptr noundef nonnull align 8 dereferenceable(24) %1, i64 %2, i64 %3, i32 noundef %4) local_unnamed_addr #0 personality ptr @__gxx_personality_v0 {
  %6 = alloca %"class.cv::utils::trace::details::Region", align 8
  call void @llvm.lifetime.start.p0(i64 16, ptr nonnull %6) #24
  call void @_ZN2cv5utils5trace7details6RegionC1ERKNS3_21LocationStaticStorageE(ptr noundef nonnull align 8 dereferenceable(12) %6, ptr noundef nonnull align 8 dereferenceable(32) @_ZZN2cv4blurERKNS_11_InputArrayERKNS_12_OutputArrayENS_5Size_IiEENS_6Point_IiEEiE25__cv_trace_location_fn416)
  invoke void @_ZN2cv9boxFilterERKNS_11_InputArrayERKNS_12_OutputArrayEiNS_5Size_IiEENS_6Point_IiEEbi(ptr noundef nonnull align 8 dereferenceable(24) %0, ptr noundef nonnull align 8 dereferenceable(24) %1, i32 noundef -1, i64 %2, i64 %3, i1 noundef zeroext true, i32 noundef %4)
          to label %7 unwind label %14

7:                                                ; preds = %5
  %8 = getelementptr inbounds nuw i8, ptr %6, i64 8
  %9 = load i32, ptr %8, align 8, !tbaa !67
  %.not.i = icmp eq i32 %9, 0
  br i1 %.not.i, label %_ZN2cv5utils5trace7details6RegionD2Ev.exit, label %10

10:                                               ; preds = %7
  invoke void @_ZN2cv5utils5trace7details6Region7destroyEv(ptr noundef nonnull align 8 dereferenceable(12) %6)
          to label %_ZN2cv5utils5trace7details6RegionD2Ev.exit unwind label %11

11:                                               ; preds = %10
  %12 = landingpad { ptr, i32 }
          catch ptr null
  %13 = extractvalue { ptr, i32 } %12, 0
  call void @__clang_call_terminate(ptr %13) #28
  unreachable

_ZN2cv5utils5trace7details6RegionD2Ev.exit:       ; preds = %7, %10
  call void @llvm.lifetime.end.p0(i64 16, ptr nonnull %6) #24
  ret void

14:                                               ; preds = %5
  %15 = landingpad { ptr, i32 }
          cleanup
  call void @_ZN2cv5utils5trace7details6RegionD2Ev(ptr noundef nonnull align 8 dereferenceable(12) %6) #24
  call void @llvm.lifetime.end.p0(i64 16, ptr nonnull %6) #24
  resume { ptr, i32 } %15
}